target datalayout = "e-m:e-p270:32:32-p271:32:32-p272:64:64-i64:64-i128:128-f80:128-n8:16:32:64-S128"
target triple = "x86_64-pc-linux-gnu"

%struct.ml_dsa_key_st = type { ptr, ptr, ptr, ptr, [32 x i8], [64 x i8], [32 x i8], ptr, ptr, ptr, i32, i32, %struct.vector_st, %struct.vector_st, %struct.vector_st, %struct.vector_st }
%struct.vector_st = type { ptr, i64 }
%struct.ml_dsa_params_st = type { ptr, i32, i32, i32, i32, i32, i64, i64, i32, i32, i32, i32, i64, i64, i64 }
%struct.poly_st = type { [256 x i32] }

@.str = private unnamed_addr constant [38 x i8] c"../openssl/crypto/ml_dsa/ml_dsa_key.c\00", align 1

; Function Attrs: inlinehint nounwind uwtable
define internal i32 @poly_equal(ptr noundef %0, ptr noundef %1) #3 {
  %3 = alloca ptr, align 8
  %4 = alloca ptr, align 8
  store ptr %0, ptr %3, align 8, !tbaa !41
  store ptr %1, ptr %4, align 8, !tbaa !41
  %5 = load ptr, ptr %3, align 8, !tbaa !41
  %6 = load ptr, ptr %4, align 8, !tbaa !41
  %7 = call i32 @CRYPTO_memcmp(ptr noundef %5, ptr noundef %6, i64 noundef 1024)
  %8 = icmp eq i32 %7, 0
  %9 = zext i1 %8 to i32
  ret i32 %9
}

; Function Attrs: inlinehint nounwind uwtable
define internal i32 @vector_equal(ptr noundef %0, ptr noundef %1) #3 {
  %3 = alloca i32, align 4
  %4 = alloca ptr, align 8
  %5 = alloca ptr, align 8
  %6 = alloca i64, align 8
  %7 = alloca i32, align 4
  store ptr %0, ptr %4, align 8, !tbaa !35
  store ptr %1, ptr %5, align 8, !tbaa !35
  call void @llvm.lifetime.start.p0(i64 8, ptr %6) #7
  %8 = load ptr, ptr %4, align 8, !tbaa !35
  %9 = getelementptr inbounds nuw %struct.vector_st, ptr %8, i32 0, i32 1
  %10 = load i64, ptr %9, align 8, !tbaa !38
  %11 = load ptr, ptr %5, align 8, !tbaa !35
  %12 = getelementptr inbounds nuw %struct.vector_st, ptr %11, i32 0, i32 1
  %13 = load i64, ptr %12, align 8, !tbaa !38
  %14 = icmp ne i64 %10, %13
  br i1 %14, label %15, label %16

15:                                               ; preds = %2
  store i32 0, ptr %3, align 4
  store i32 1, ptr %7, align 4
  br label %42

16:                                               ; preds = %2
  store i64 0, ptr %6, align 8, !tbaa !23
  br label %17

17:                                               ; preds = %38, %16
  %18 = load i64, ptr %6, align 8, !tbaa !23
  %19 = load ptr, ptr %4, align 8, !tbaa !35
  %20 = getelementptr inbounds nuw %struct.vector_st, ptr %19, i32 0, i32 1
  %21 = load i64, ptr %20, align 8, !tbaa !38
  %22 = icmp ult i64 %18, %21
  br i1 %22, label %23, label %41

23:                                               ; preds = %17
  %24 = load ptr, ptr %4, align 8, !tbaa !35
  %25 = getelementptr inbounds nuw %struct.vector_st, ptr %24, i32 0, i32 0
  %26 = load ptr, ptr %25, align 8, !tbaa !37
  %27 = load i64, ptr %6, align 8, !tbaa !23
  %28 = getelementptr inbounds nuw %struct.poly_st, ptr %26, i64 %27
  %29 = load ptr, ptr %5, align 8, !tbaa !35
  %30 = getelementptr inbounds nuw %struct.vector_st, ptr %29, i32 0, i32 0
  %31 = load ptr, ptr %30, align 8, !tbaa !37
  %32 = load i64, ptr %6, align 8, !tbaa !23
  %33 = getelementptr inbounds nuw %struct.poly_st, ptr %31, i64 %32
  %34 = call i32 @poly_equal(ptr noundef %28, ptr noundef %33)
  %35 = icmp ne i32 %34, 0
  br i1 %35, label %37, label %36

36:                                               ; preds = %23
  store i32 0, ptr %3, align 4
  store i32 1, ptr %7, align 4
  br label %42

37:                                               ; preds = %23
  br label %38

38:                                               ; preds = %37
  %39 = load i64, ptr %6, align 8, !tbaa !23
  %40 = add i64 %39, 1
  store i64 %40, ptr %6, align 8, !tbaa !23
  br label %17, !llvm.loop !46

41:                                               ; preds = %17
  store i32 1, ptr %3, align 4
  store i32 1, ptr %7, align 4
  br label %42

42:                                               ; preds = %41, %36, %15
  call void @llvm.lifetime.end.p0(i64 8, ptr %6) #7
  %43 = load i32, ptr %3, align 4
  ret i32 %43
}

; Function Attrs: inlinehint nounwind uwtable
define internal void @vector_init(ptr noundef %0, ptr noundef %1, i64 noundef %2) #3 {
  %4 = alloca ptr, align 8
  %5 = alloca ptr, align 8
  %6 = alloca i64, align 8
  store ptr %0, ptr %4, align 8, !tbaa !35
  store ptr %1, ptr %5, align 8, !tbaa !41
  store i64 %2, ptr %6, align 8, !tbaa !23
  %7 = load ptr, ptr %5, align 8, !tbaa !41
  %8 = load ptr, ptr %4, align 8, !tbaa !35
  %9 = getelementptr inbounds nuw %struct.vector_st, ptr %8, i32 0, i32 0
  store ptr %7, ptr %9, align 8, !tbaa !37
  %10 = load i64, ptr %6, align 8, !tbaa !23
  %11 = load ptr, ptr %4, align 8, !tbaa !35
  %12 = getelementptr inbounds nuw %struct.vector_st, ptr %11, i32 0, i32 1
  store i64 %10, ptr %12, align 8, !tbaa !38
  ret void
}

; Function Attrs: nounwind uwtable
define i32 @ossl_ml_dsa_key_pairwise_check(ptr noundef %0) #0 {
  %2 = alloca i32, align 4
  %3 = alloca ptr, align 8
  %4 = alloca i32, align 4
  %5 = alloca %struct.vector_st, align 8
  %6 = alloca %struct.vector_st, align 8
  %7 = alloca ptr, align 8
  %8 = alloca i32, align 4
  %9 = alloca ptr, align 8
  %10 = alloca i32, align 4
  store ptr %0, ptr %3, align 8, !tbaa !3
  call void @llvm.lifetime.start.p0(i64 4, ptr %4) #7
  store i32 0, ptr %4, align 4, !tbaa !21
  call void @llvm.lifetime.start.p0(i64 16, ptr %5) #7
  call void @llvm.lifetime.start.p0(i64 16, ptr %6) #7
  call void @llvm.lifetime.start.p0(i64 8, ptr %7) #7
  store ptr null, ptr %7, align 8, !tbaa !41
  call void @llvm.lifetime.start.p0(i64 4, ptr %8) #7
  %11 = load ptr, ptr %3, align 8, !tbaa !3
  %12 = getelementptr inbounds nuw %struct.ml_dsa_key_st, ptr %11, i32 0, i32 1
  %13 = load ptr, ptr %12, align 8, !tbaa !8
  %14 = getelementptr inbounds nuw %struct.ml_dsa_params_st, ptr %13, i32 0, i32 6
  %15 = load i64, ptr %14, align 8, !tbaa !34
  %16 = trunc i64 %15 to i32
  store i32 %16, ptr %8, align 4, !tbaa !21
  call void @llvm.lifetime.start.p0(i64 8, ptr %9) #7
  store ptr null, ptr %9, align 8, !tbaa !44
  %17 = load ptr, ptr %3, align 8, !tbaa !3
  %18 = getelementptr inbounds nuw %struct.ml_dsa_key_st, ptr %17, i32 0, i32 7
  %19 = load ptr, ptr %18, align 8, !tbaa !24
  %20 = icmp eq ptr %19, null
  br i1 %20, label %26, label %21

21:                                               ; preds = %1
  %22 = load ptr, ptr %3, align 8, !tbaa !3
  %23 = getelementptr inbounds nuw %struct.ml_dsa_key_st, ptr %22, i32 0, i32 8
  %24 = load ptr, ptr %23, align 8, !tbaa !25
  %25 = icmp eq ptr %24, null
  br i1 %25, label %26, label %27

26:                                               ; preds = %21, %1
  store i32 0, ptr %2, align 4
  store i32 1, ptr %10, align 4
  br label %73

27:                                               ; preds = %21
  %28 = load i32, ptr %8, align 4, !tbaa !21
  %29 = mul i32 2, %28
  %30 = zext i32 %29 to i64
  %31 = mul i64 1024, %30
  %32 = call noalias ptr @CRYPTO_malloc(i64 noundef %31, ptr noundef @.str, i32 noundef 382)
  store ptr %32, ptr %7, align 8, !tbaa !41
  %33 = load ptr, ptr %7, align 8, !tbaa !41
  %34 = icmp eq ptr %33, null
  br i1 %34, label %35, label %36

35:                                               ; preds = %27
  store i32 0, ptr %2, align 4
  store i32 1, ptr %10, align 4
  br label %73

36:                                               ; preds = %27
  %37 = call ptr @EVP_MD_CTX_new()
  store ptr %37, ptr %9, align 8, !tbaa !44
  %38 = load ptr, ptr %9, align 8, !tbaa !44
  %39 = icmp eq ptr %38, null
  br i1 %39, label %40, label %41

40:                                               ; preds = %36
  br label %69

41:                                               ; preds = %36
  %42 = load ptr, ptr %7, align 8, !tbaa !41
  %43 = load i32, ptr %8, align 4, !tbaa !21
  %44 = zext i32 %43 to i64
  call void @vector_init(ptr noundef %5, ptr noundef %42, i64 noundef %44)
  %45 = load ptr, ptr %7, align 8, !tbaa !41
  %46 = load i32, ptr %8, align 4, !tbaa !21
  %47 = zext i32 %46 to i64
  %48 = getelementptr inbounds nuw %struct.poly_st, ptr %45, i64 %47
  %49 = load i32, ptr %8, align 4, !tbaa !21
  %50 = zext i32 %49 to i64
  call void @vector_init(ptr noundef %6, ptr noundef %48, i64 noundef %50)
  %51 = load ptr, ptr %3, align 8, !tbaa !3
  %52 = load ptr, ptr %9, align 8, !tbaa !44
  %53 = call i32 @public_from_private(ptr noundef %51, ptr noundef %52, ptr noundef %5, ptr noundef %6)
  %54 = icmp ne i32 %53, 0
  br i1 %54, label %56, label %55

55:                                               ; preds = %41
  br label %69

56:                                               ; preds = %41
  %57 = load ptr, ptr %3, align 8, !tbaa !3
  %58 = getelementptr inbounds nuw %struct.ml_dsa_key_st, ptr %57, i32 0, i32 12
  %59 = call i32 @vector_equal(ptr noundef %5, ptr noundef %58)
  %60 = icmp ne i32 %59, 0
  br i1 %60, label %61, label %66

61:                                               ; preds = %56
  %62 = load ptr, ptr %3, align 8, !tbaa !3
  %63 = getelementptr inbounds nuw %struct.ml_dsa_key_st, ptr %62, i32 0, i32 13
  %64 = call i32 @vector_equal(ptr noundef %6, ptr noundef %63)
  %65 = icmp ne i32 %64, 0
  br label %66

66:                                               ; preds = %61, %56
  %67 = phi i1 [ false, %56 ], [ %65, %61 ]
  %68 = zext i1 %67 to i32
  store i32 %68, ptr %4, align 4, !tbaa !21
  br label %69

69:                                               ; preds = %66, %55, %40
  %70 = load ptr, ptr %9, align 8, !tbaa !44
  call void @EVP_MD_CTX_free(ptr noundef %70)
  %71 = load ptr, ptr %7, align 8, !tbaa !41
  call void @CRYPTO_free(ptr noundef %71, ptr noundef @.str, i32 noundef 397)
  %72 = load i32, ptr %4, align 4, !tbaa !21
  store i32 %72, ptr %2, align 4
  store i32 1, ptr %10, align 4
  br label %73

73:                                               ; preds = %69, %35, %26
  call void @llvm.lifetime.end.p0(i64 8, ptr %9) #7
  call void @llvm.lifetime.end.p0(i64 4, ptr %8) #7
  call void @llvm.lifetime.end.p0(i64 8, ptr %7) #7
  call void @llvm.lifetime.end.p0(i64 16, ptr %6) #7
  call void @llvm.lifetime.end.p0(i64 16, ptr %5) #7
  call void @llvm.lifetime.end.p0(i64 4, ptr %4) #7
  %74 = load i32, ptr %2, align 4
  ret i32 %74
}