; Function Attrs: nounwind uwtable
define range(i32 0, 2) i32 @ossl_ml_dsa_key_pairwise_check(ptr noundef %0) local_unnamed_addr #1 {
  %2 = alloca %struct.vector_st, align 8
  %3 = alloca %struct.vector_st, align 8
  call void @llvm.lifetime.start.p0(i64 16, ptr nonnull %2) #9
  call void @llvm.lifetime.start.p0(i64 16, ptr nonnull %3) #9
  %4 = getelementptr inbounds nuw i8, ptr %0, i64 8
  %5 = load ptr, ptr %4, align 8, !tbaa !3
  %6 = getelementptr inbounds nuw i8, ptr %5, i64 32
  %7 = load i64, ptr %6, align 8, !tbaa !27
  %8 = getelementptr inbounds nuw i8, ptr %0, i64 160
  %9 = load ptr, ptr %8, align 8, !tbaa !19
  %10 = icmp eq ptr %9, null
  br i1 %10, label %50, label %11

11:                                               ; preds = %1
  %12 = getelementptr inbounds nuw i8, ptr %0, i64 168
  %13 = load ptr, ptr %12, align 8, !tbaa !20
  %14 = icmp eq ptr %13, null
  br i1 %14, label %50, label %15

15:                                               ; preds = %11
  %16 = shl i64 %7, 11
  %17 = and i64 %16, 4398046509056
  %18 = tail call noalias ptr @CRYPTO_malloc(i64 noundef %17, ptr noundef nonnull @.str, i32 noundef 382) #9
  %19 = icmp eq ptr %18, null
  br i1 %19, label %50, label %20

20:                                               ; preds = %15
  %21 = tail call ptr @EVP_MD_CTX_new() #9
  %22 = icmp eq ptr %21, null
  br i1 %22, label %vector_equal.exit33, label %23

23:                                               ; preds = %20
  %24 = and i64 %7, 4294967295
  store ptr %18, ptr %2, align 8, !tbaa !28
  %25 = getelementptr inbounds nuw i8, ptr %2, i64 8
  store i64 %24, ptr %25, align 8, !tbaa !29
  %26 = getelementptr inbounds nuw %struct.poly_st, ptr %18, i64 %24
  store ptr %26, ptr %3, align 8, !tbaa !28
  %27 = getelementptr inbounds nuw i8, ptr %3, i64 8
  store i64 %24, ptr %27, align 8, !tbaa !29
  %28 = call fastcc i32 @public_from_private(ptr noundef nonnull %0, ptr noundef %21, ptr noundef nonnull %2, ptr noundef nonnull %3)
  %.not = icmp eq i32 %28, 0
  br i1 %.not, label %vector_equal.exit33, label %29

29:                                               ; preds = %23
  %30 = getelementptr inbounds nuw i8, ptr %0, i64 192
  %31 = getelementptr inbounds nuw i8, ptr %0, i64 200
  %32 = load i64, ptr %31, align 8, !tbaa !29
  %.not.i = icmp eq i64 %24, %32
  br i1 %.not.i, label %.preheader.i, label %vector_equal.exit33

.preheader.i:                                     ; preds = %29
  %.not5.i = icmp eq i64 %24, 0
  br i1 %.not5.i, label %vector_equal.exit.thread36, label %.lr.ph.i

33:                                               ; preds = %.lr.ph.i
  %34 = add nuw nsw i64 %.02.i, 1
  %exitcond.not.i = icmp eq i64 %34, %24
  br i1 %exitcond.not.i, label %vector_equal.exit, label %.lr.ph.i, !llvm.loop !34

.lr.ph.i:                                         ; preds = %.preheader.i, %33
  %.02.i = phi i64 [ %34, %33 ], [ 0, %.preheader.i ]
  %35 = getelementptr inbounds nuw %struct.poly_st, ptr %18, i64 %.02.i
  %36 = load ptr, ptr %30, align 8, !tbaa !28
  %37 = getelementptr inbounds nuw %struct.poly_st, ptr %36, i64 %.02.i
  %38 = tail call i32 @CRYPTO_memcmp(ptr noundef nonnull %35, ptr noundef %37, i64 noundef 1024) #9
  %.not1.i = icmp eq i32 %38, 0
  br i1 %.not1.i, label %33, label %vector_equal.exit33

vector_equal.exit:                                ; preds = %33
  %39 = getelementptr inbounds nuw i8, ptr %0, i64 208
  %40 = getelementptr inbounds nuw i8, ptr %0, i64 216
  %41 = load i64, ptr %40, align 8, !tbaa !29
  %.not.i25 = icmp eq i64 %24, %41
  br i1 %.not.i25, label %.lr.ph.i29, label %vector_equal.exit33

vector_equal.exit.thread36:                       ; preds = %.preheader.i
  %42 = getelementptr inbounds nuw i8, ptr %0, i64 216
  %43 = load i64, ptr %42, align 8, !tbaa !29
  %.not.i2538 = icmp eq i64 %43, 0
  %spec.select = zext i1 %.not.i2538 to i32
  br label %vector_equal.exit33

44:                                               ; preds = %.lr.ph.i29
  %45 = add nuw nsw i64 %.02.i30, 1
  %exitcond.not.i32 = icmp eq i64 %45, %24
  br i1 %exitcond.not.i32, label %vector_equal.exit33, label %.lr.ph.i29, !llvm.loop !34

.lr.ph.i29:                                       ; preds = %vector_equal.exit, %44
  %.02.i30 = phi i64 [ %45, %44 ], [ 0, %vector_equal.exit ]
  %46 = getelementptr inbounds nuw %struct.poly_st, ptr %26, i64 %.02.i30
  %47 = load ptr, ptr %39, align 8, !tbaa !28
  %48 = getelementptr inbounds nuw %struct.poly_st, ptr %47, i64 %.02.i30
  %49 = tail call i32 @CRYPTO_memcmp(ptr noundef nonnull %46, ptr noundef %48, i64 noundef 1024) #9
  %.not1.i31 = icmp eq i32 %49, 0
  br i1 %.not1.i31, label %44, label %vector_equal.exit33

vector_equal.exit33:                              ; preds = %.lr.ph.i, %.lr.ph.i29, %44, %vector_equal.exit.thread36, %29, %vector_equal.exit, %23, %20
  %.018 = phi i32 [ 0, %20 ], [ 0, %23 ], [ 0, %vector_equal.exit ], [ 0, %29 ], [ %spec.select, %vector_equal.exit.thread36 ], [ 1, %44 ], [ 0, %.lr.ph.i29 ], [ 0, %.lr.ph.i ]
  tail call void @EVP_MD_CTX_free(ptr noundef %21) #9
  tail call void @CRYPTO_free(ptr noundef nonnull %18, ptr noundef nonnull @.str, i32 noundef 397) #9
  br label %50

50:                                               ; preds = %15, %1, %11, %vector_equal.exit33
  %.0 = phi i32 [ %.018, %vector_equal.exit33 ], [ 0, %11 ], [ 0, %1 ], [ 0, %15 ]
  call void @llvm.lifetime.end.p0(i64 16, ptr nonnull %3) #9
  call void @llvm.lifetime.end.p0(i64 16, ptr nonnull %2) #9
  ret i32 %.0
}